target datalayout = "e-m:e-p270:32:32-p271:32:32-p272:64:64-i64:64-i128:128-f80:128-n8:16:32:64-S128"
target triple = "x86_64-pc-linux-gnu"

%struct.VP8Residual = type { i32, i32, ptr, i32, ptr, ptr, ptr }

; Function Attrs: nounwind uwtable
define internal void @SetResidualCoeffs_C(ptr noalias noundef %0, ptr noalias noundef %1) #0 {
  %3 = alloca ptr, align 8
  %4 = alloca ptr, align 8
  %5 = alloca i32, align 4
  store ptr %0, ptr %3, align 8, !tbaa !21
  store ptr %1, ptr %4, align 8, !tbaa !9
  call void @llvm.lifetime.start.p0(i64 4, ptr %5) #6
  %6 = load ptr, ptr %4, align 8, !tbaa !9
  %7 = getelementptr inbounds nuw %struct.VP8Residual, ptr %6, i32 0, i32 1
  store i32 -1, ptr %7, align 4, !tbaa !22
  store i32 15, ptr %5, align 4, !tbaa !7
  br label %8

8:                                                ; preds = %23, %2
  %9 = load i32, ptr %5, align 4, !tbaa !7
  %10 = icmp sge i32 %9, 0
  br i1 %10, label %11, label %26

11:                                               ; preds = %8
  %12 = load ptr, ptr %3, align 8, !tbaa !21
  %13 = load i32, ptr %5, align 4, !tbaa !7
  %14 = sext i32 %13 to i64
  %15 = getelementptr inbounds i16, ptr %12, i64 %14
  %16 = load i16, ptr %15, align 2, !tbaa !24
  %17 = icmp ne i16 %16, 0
  br i1 %17, label %18, label %22

18:                                               ; preds = %11
  %19 = load i32, ptr %5, align 4, !tbaa !7
  %20 = load ptr, ptr %4, align 8, !tbaa !9
  %21 = getelementptr inbounds nuw %struct.VP8Residual, ptr %20, i32 0, i32 1
  store i32 %19, ptr %21, align 4, !tbaa !22
  br label %26

22:                                               ; preds = %11
  br label %23

23:                                               ; preds = %22
  %24 = load i32, ptr %5, align 4, !tbaa !7
  %25 = add nsw i32 %24, -1
  store i32 %25, ptr %5, align 4, !tbaa !7
  br label %8, !llvm.loop !28

26:                                               ; preds = %18, %8
  %27 = load ptr, ptr %3, align 8, !tbaa !21
  %28 = load ptr, ptr %4, align 8, !tbaa !9
  %29 = getelementptr inbounds nuw %struct.VP8Residual, ptr %28, i32 0, i32 2
  store ptr %27, ptr %29, align 8, !tbaa !23
  call void @llvm.lifetime.end.p0(i64 4, ptr %5) #6
  ret void
}