; Function Attrs: nofree norecurse nosync nounwind memory(argmem: readwrite) uwtable
define internal void @SetResidualCoeffs_C(ptr noalias noundef %0, ptr noalias noundef writeonly captures(none) initializes((4, 8)) %1) #3 {
  %3 = getelementptr inbounds nuw i8, ptr %1, i64 4
  store i32 -1, ptr %3, align 4, !tbaa !20
  br label %4

4:                                                ; preds = %2, %9
  %.09 = phi i32 [ 15, %2 ], [ %10, %9 ]
  %5 = zext nneg i32 %.09 to i64
  %6 = getelementptr inbounds nuw i16, ptr %0, i64 %5
  %7 = load i16, ptr %6, align 2, !tbaa !18
  %.not = icmp eq i16 %7, 0
  br i1 %.not, label %9, label %8

8:                                                ; preds = %4
  store i32 %.09, ptr %3, align 4, !tbaa !20
  br label %.loopexit

9:                                                ; preds = %4
  %10 = add nsw i32 %.09, -1
  %.not11 = icmp eq i32 %.09, 0
  br i1 %.not11, label %.loopexit, label %4, !llvm.loop !24

.loopexit:                                        ; preds = %9, %8
  %11 = getelementptr inbounds nuw i8, ptr %1, i64 8
  store ptr %0, ptr %11, align 8, !tbaa !21
  ret void
}